target datalayout = "e-m:e-p270:32:32-p271:32:32-p272:64:64-i64:64-i128:128-f80:128-n8:16:32:64-S128"
target triple = "x86_64-pc-linux-gnu"

%"class.std::__1::locale::facet" = type { %"class.std::__1::__shared_count" }
%"class.std::__1::__shared_count" = type { ptr, i64 }
%"class.std::__1::codecvt.37" = type { %"class.std::__1::locale::facet", ptr }
%"class.std::__1::__codecvt_utf16" = type <{ %"class.std::__1::codecvt.37", i64, i32, [4 x i8] }>

; Function Attrs: mustprogress nounwind uwtable
define internal noundef i32 @_ZNSt3__1L15ucs4_to_utf16beEPKjS1_RS1_PhS3_RS3_mNS_12codecvt_modeE(ptr noundef %0, ptr noundef %1, ptr noundef nonnull align 8 dereferenceable(8) %2, ptr noundef %3, ptr noundef %4, ptr noundef nonnull align 8 dereferenceable(8) %5, i64 noundef %6, i32 noundef %7) #0 {
  %9 = alloca i32, align 4
  %10 = alloca ptr, align 8
  %11 = alloca ptr, align 8
  %12 = alloca ptr, align 8
  %13 = alloca ptr, align 8
  %14 = alloca ptr, align 8
  %15 = alloca ptr, align 8
  %16 = alloca i64, align 8
  %17 = alloca i32, align 4
  %18 = alloca i32, align 4
  %19 = alloca i32, align 4
  %20 = alloca i16, align 2
  store ptr %0, ptr %10, align 8, !tbaa !33
  store ptr %1, ptr %11, align 8, !tbaa !33
  store ptr %2, ptr %12, align 8, !tbaa !97
  store ptr %3, ptr %13, align 8, !tbaa !9
  store ptr %4, ptr %14, align 8, !tbaa !9
  store ptr %5, ptr %15, align 8, !tbaa !95
  store i64 %6, ptr %16, align 8, !tbaa !16
  store i32 %7, ptr %17, align 4, !tbaa !502
  %21 = load ptr, ptr %10, align 8, !tbaa !33
  %22 = load ptr, ptr %12, align 8, !tbaa !97
  store ptr %21, ptr %22, align 8, !tbaa !33
  %23 = load ptr, ptr %13, align 8, !tbaa !9
  %24 = load ptr, ptr %15, align 8, !tbaa !95
  store ptr %23, ptr %24, align 8, !tbaa !9
  %25 = load i32, ptr %17, align 4, !tbaa !502
  %26 = and i32 %25, 2
  %27 = icmp ne i32 %26, 0
  br i1 %27, label %28, label %44

28:                                               ; preds = %8
  %29 = load ptr, ptr %14, align 8, !tbaa !9
  %30 = load ptr, ptr %15, align 8, !tbaa !95
  %31 = load ptr, ptr %30, align 8, !tbaa !9
  %32 = ptrtoint ptr %29 to i64
  %33 = ptrtoint ptr %31 to i64
  %34 = sub i64 %32, %33
  %35 = icmp slt i64 %34, 2
  br i1 %35, label %36, label %37

36:                                               ; preds = %28
  store i32 1, ptr %9, align 4
  br label %145

37:                                               ; preds = %28
  %38 = load ptr, ptr %15, align 8, !tbaa !95
  %39 = load ptr, ptr %38, align 8, !tbaa !9
  %40 = getelementptr inbounds nuw i8, ptr %39, i32 1
  store ptr %40, ptr %38, align 8, !tbaa !9
  store i8 -2, ptr %39, align 1, !tbaa !11
  %41 = load ptr, ptr %15, align 8, !tbaa !95
  %42 = load ptr, ptr %41, align 8, !tbaa !9
  %43 = getelementptr inbounds nuw i8, ptr %42, i32 1
  store ptr %43, ptr %41, align 8, !tbaa !9
  store i8 -1, ptr %42, align 1, !tbaa !11
  br label %44

44:                                               ; preds = %37, %8
  br label %45

45:                                               ; preds = %140, %44
  %46 = load ptr, ptr %12, align 8, !tbaa !97
  %47 = load ptr, ptr %46, align 8, !tbaa !33
  %48 = load ptr, ptr %11, align 8, !tbaa !33
  %49 = icmp ult ptr %47, %48
  br i1 %49, label %50, label %144

50:                                               ; preds = %45
  call void @llvm.lifetime.start.p0(i64 4, ptr %18) #13
  %51 = load ptr, ptr %12, align 8, !tbaa !97
  %52 = load ptr, ptr %51, align 8, !tbaa !33
  %53 = load i32, ptr %52, align 4, !tbaa !41
  store i32 %53, ptr %18, align 4, !tbaa !41
  %54 = load i32, ptr %18, align 4, !tbaa !41
  %55 = and i32 %54, -2048
  %56 = icmp eq i32 %55, 55296
  br i1 %56, label %62, label %57

57:                                               ; preds = %50
  %58 = load i32, ptr %18, align 4, !tbaa !41
  %59 = zext i32 %58 to i64
  %60 = load i64, ptr %16, align 8, !tbaa !16
  %61 = icmp ugt i64 %59, %60
  br i1 %61, label %62, label %63

62:                                               ; preds = %57, %50
  store i32 2, ptr %9, align 4
  store i32 1, ptr %19, align 4
  br label %137

63:                                               ; preds = %57
  %64 = load i32, ptr %18, align 4, !tbaa !41
  %65 = icmp ult i32 %64, 65536
  br i1 %65, label %66, label %87

66:                                               ; preds = %63
  %67 = load ptr, ptr %14, align 8, !tbaa !9
  %68 = load ptr, ptr %15, align 8, !tbaa !95
  %69 = load ptr, ptr %68, align 8, !tbaa !9
  %70 = ptrtoint ptr %67 to i64
  %71 = ptrtoint ptr %69 to i64
  %72 = sub i64 %70, %71
  %73 = icmp slt i64 %72, 2
  br i1 %73, label %74, label %75

74:                                               ; preds = %66
  store i32 1, ptr %9, align 4
  store i32 1, ptr %19, align 4
  br label %137

75:                                               ; preds = %66
  %76 = load i32, ptr %18, align 4, !tbaa !41
  %77 = lshr i32 %76, 8
  %78 = trunc i32 %77 to i8
  %79 = load ptr, ptr %15, align 8, !tbaa !95
  %80 = load ptr, ptr %79, align 8, !tbaa !9
  %81 = getelementptr inbounds nuw i8, ptr %80, i32 1
  store ptr %81, ptr %79, align 8, !tbaa !9
  store i8 %78, ptr %80, align 1, !tbaa !11
  %82 = load i32, ptr %18, align 4, !tbaa !41
  %83 = trunc i32 %82 to i8
  %84 = load ptr, ptr %15, align 8, !tbaa !95
  %85 = load ptr, ptr %84, align 8, !tbaa !9
  %86 = getelementptr inbounds nuw i8, ptr %85, i32 1
  store ptr %86, ptr %84, align 8, !tbaa !9
  store i8 %83, ptr %85, align 1, !tbaa !11
  br label %136

87:                                               ; preds = %63
  %88 = load ptr, ptr %14, align 8, !tbaa !9
  %89 = load ptr, ptr %15, align 8, !tbaa !95
  %90 = load ptr, ptr %89, align 8, !tbaa !9
  %91 = ptrtoint ptr %88 to i64
  %92 = ptrtoint ptr %90 to i64
  %93 = sub i64 %91, %92
  %94 = icmp slt i64 %93, 4
  br i1 %94, label %95, label %96

95:                                               ; preds = %87
  store i32 1, ptr %9, align 4
  store i32 1, ptr %19, align 4
  br label %137

96:                                               ; preds = %87
  call void @llvm.lifetime.start.p0(i64 2, ptr %20) #13
  %97 = load i32, ptr %18, align 4, !tbaa !41
  %98 = and i32 %97, 2031616
  %99 = lshr i32 %98, 16
  %100 = sub i32 %99, 1
  %101 = shl i32 %100, 6
  %102 = or i32 55296, %101
  %103 = load i32, ptr %18, align 4, !tbaa !41
  %104 = and i32 %103, 64512
  %105 = lshr i32 %104, 10
  %106 = or i32 %102, %105
  %107 = trunc i32 %106 to i16
  store i16 %107, ptr %20, align 2, !tbaa !73
  %108 = load i16, ptr %20, align 2, !tbaa !73
  %109 = zext i16 %108 to i32
  %110 = ashr i32 %109, 8
  %111 = trunc i32 %110 to i8
  %112 = load ptr, ptr %15, align 8, !tbaa !95
  %113 = load ptr, ptr %112, align 8, !tbaa !9
  %114 = getelementptr inbounds nuw i8, ptr %113, i32 1
  store ptr %114, ptr %112, align 8, !tbaa !9
  store i8 %111, ptr %113, align 1, !tbaa !11
  %115 = load i16, ptr %20, align 2, !tbaa !73
  %116 = trunc i16 %115 to i8
  %117 = load ptr, ptr %15, align 8, !tbaa !95
  %118 = load ptr, ptr %117, align 8, !tbaa !9
  %119 = getelementptr inbounds nuw i8, ptr %118, i32 1
  store ptr %119, ptr %117, align 8, !tbaa !9
  store i8 %116, ptr %118, align 1, !tbaa !11
  %120 = load i32, ptr %18, align 4, !tbaa !41
  %121 = and i32 %120, 1023
  %122 = or i32 56320, %121
  %123 = trunc i32 %122 to i16
  store i16 %123, ptr %20, align 2, !tbaa !73
  %124 = load i16, ptr %20, align 2, !tbaa !73
  %125 = zext i16 %124 to i32
  %126 = ashr i32 %125, 8
  %127 = trunc i32 %126 to i8
  %128 = load ptr, ptr %15, align 8, !tbaa !95
  %129 = load ptr, ptr %128, align 8, !tbaa !9
  %130 = getelementptr inbounds nuw i8, ptr %129, i32 1
  store ptr %130, ptr %128, align 8, !tbaa !9
  store i8 %127, ptr %129, align 1, !tbaa !11
  %131 = load i16, ptr %20, align 2, !tbaa !73
  %132 = trunc i16 %131 to i8
  %133 = load ptr, ptr %15, align 8, !tbaa !95
  %134 = load ptr, ptr %133, align 8, !tbaa !9
  %135 = getelementptr inbounds nuw i8, ptr %134, i32 1
  store ptr %135, ptr %133, align 8, !tbaa !9
  store i8 %132, ptr %134, align 1, !tbaa !11
  call void @llvm.lifetime.end.p0(i64 2, ptr %20) #13
  br label %136

136:                                              ; preds = %96, %75
  store i32 0, ptr %19, align 4
  br label %137

137:                                              ; preds = %136, %95, %74, %62
  call void @llvm.lifetime.end.p0(i64 4, ptr %18) #13
  %138 = load i32, ptr %19, align 4
  switch i32 %138, label %147 [
    i32 0, label %139
    i32 1, label %145
  ]

139:                                              ; preds = %137
  br label %140

140:                                              ; preds = %139
  %141 = load ptr, ptr %12, align 8, !tbaa !97
  %142 = load ptr, ptr %141, align 8, !tbaa !33
  %143 = getelementptr inbounds nuw i32, ptr %142, i32 1
  store ptr %143, ptr %141, align 8, !tbaa !33
  br label %45, !llvm.loop !541

144:                                              ; preds = %45
  store i32 0, ptr %9, align 4
  br label %145

145:                                              ; preds = %144, %137, %36
  %146 = load i32, ptr %9, align 4
  ret i32 %146

147:                                              ; preds = %137
  unreachable
}

; Function Attrs: mustprogress uwtable
define dso_local noundef i32 @_ZNKSt3__115__codecvt_utf16IwLb0EE6do_outER11__mbstate_tPKwS5_RS5_PcS7_RS7_(ptr noundef nonnull align 8 dereferenceable(36) %0, ptr noundef nonnull align 4 dereferenceable(8) %1, ptr noundef %2, ptr noundef %3, ptr noundef nonnull align 8 dereferenceable(8) %4, ptr noundef %5, ptr noundef %6, ptr noundef nonnull align 8 dereferenceable(8) %7) unnamed_addr #2 align 2 {
  %9 = alloca ptr, align 8
  %10 = alloca ptr, align 8
  %11 = alloca ptr, align 8
  %12 = alloca ptr, align 8
  %13 = alloca ptr, align 8
  %14 = alloca ptr, align 8
  %15 = alloca ptr, align 8
  %16 = alloca ptr, align 8
  %17 = alloca ptr, align 8
  %18 = alloca ptr, align 8
  %19 = alloca ptr, align 8
  %20 = alloca ptr, align 8
  %21 = alloca ptr, align 8
  %22 = alloca ptr, align 8
  %23 = alloca i32, align 4
  store ptr %0, ptr %9, align 8, !tbaa !536
  store ptr %1, ptr %10, align 8, !tbaa !55
  store ptr %2, ptr %11, align 8, !tbaa !21
  store ptr %3, ptr %12, align 8, !tbaa !21
  store ptr %4, ptr %13, align 8, !tbaa !171
  store ptr %5, ptr %14, align 8, !tbaa !9
  store ptr %6, ptr %15, align 8, !tbaa !9
  store ptr %7, ptr %16, align 8, !tbaa !95
  %24 = load ptr, ptr %9, align 8
  call void @llvm.lifetime.start.p0(i64 8, ptr %17) #13
  %25 = load ptr, ptr %11, align 8, !tbaa !21
  store ptr %25, ptr %17, align 8, !tbaa !33
  call void @llvm.lifetime.start.p0(i64 8, ptr %18) #13
  %26 = load ptr, ptr %12, align 8, !tbaa !21
  store ptr %26, ptr %18, align 8, !tbaa !33
  call void @llvm.lifetime.start.p0(i64 8, ptr %19) #13
  %27 = load ptr, ptr %17, align 8, !tbaa !33
  store ptr %27, ptr %19, align 8, !tbaa !33
  call void @llvm.lifetime.start.p0(i64 8, ptr %20) #13
  %28 = load ptr, ptr %14, align 8, !tbaa !9
  store ptr %28, ptr %20, align 8, !tbaa !9
  call void @llvm.lifetime.start.p0(i64 8, ptr %21) #13
  %29 = load ptr, ptr %15, align 8, !tbaa !9
  store ptr %29, ptr %21, align 8, !tbaa !9
  call void @llvm.lifetime.start.p0(i64 8, ptr %22) #13
  %30 = load ptr, ptr %20, align 8, !tbaa !9
  store ptr %30, ptr %22, align 8, !tbaa !9
  call void @llvm.lifetime.start.p0(i64 4, ptr %23) #13
  %31 = load ptr, ptr %17, align 8, !tbaa !33
  %32 = load ptr, ptr %18, align 8, !tbaa !33
  %33 = load ptr, ptr %20, align 8, !tbaa !9
  %34 = load ptr, ptr %21, align 8, !tbaa !9
  %35 = getelementptr inbounds nuw %"class.std::__1::__codecvt_utf16", ptr %24, i32 0, i32 1
  %36 = load i64, ptr %35, align 8, !tbaa !538
  %37 = getelementptr inbounds nuw %"class.std::__1::__codecvt_utf16", ptr %24, i32 0, i32 2
  %38 = load i32, ptr %37, align 8, !tbaa !540
  %39 = call noundef i32 @_ZNSt3__1L15ucs4_to_utf16beEPKjS1_RS1_PhS3_RS3_mNS_12codecvt_modeE(ptr noundef %31, ptr noundef %32, ptr noundef nonnull align 8 dereferenceable(8) %19, ptr noundef %33, ptr noundef %34, ptr noundef nonnull align 8 dereferenceable(8) %22, i64 noundef %36, i32 noundef %38)
  store i32 %39, ptr %23, align 4, !tbaa !337
  %40 = load ptr, ptr %11, align 8, !tbaa !21
  %41 = load ptr, ptr %19, align 8, !tbaa !33
  %42 = load ptr, ptr %17, align 8, !tbaa !33
  %43 = ptrtoint ptr %41 to i64
  %44 = ptrtoint ptr %42 to i64
  %45 = sub i64 %43, %44
  %46 = sdiv exact i64 %45, 4
  %47 = getelementptr inbounds i32, ptr %40, i64 %46
  %48 = load ptr, ptr %13, align 8, !tbaa !171
  store ptr %47, ptr %48, align 8, !tbaa !21
  %49 = load ptr, ptr %14, align 8, !tbaa !9
  %50 = load ptr, ptr %22, align 8, !tbaa !9
  %51 = load ptr, ptr %20, align 8, !tbaa !9
  %52 = ptrtoint ptr %50 to i64
  %53 = ptrtoint ptr %51 to i64
  %54 = sub i64 %52, %53
  %55 = getelementptr inbounds i8, ptr %49, i64 %54
  %56 = load ptr, ptr %16, align 8, !tbaa !95
  store ptr %55, ptr %56, align 8, !tbaa !9
  %57 = load i32, ptr %23, align 4, !tbaa !337
  call void @llvm.lifetime.end.p0(i64 4, ptr %23) #13
  call void @llvm.lifetime.end.p0(i64 8, ptr %22) #13
  call void @llvm.lifetime.end.p0(i64 8, ptr %21) #13
  call void @llvm.lifetime.end.p0(i64 8, ptr %20) #13
  call void @llvm.lifetime.end.p0(i64 8, ptr %19) #13
  call void @llvm.lifetime.end.p0(i64 8, ptr %18) #13
  call void @llvm.lifetime.end.p0(i64 8, ptr %17) #13
  ret i32 %57
}