; Function Attrs: mustprogress nofree norecurse nosync nounwind memory(argmem: readwrite) uwtable
define dso_local noundef range(i32 0, 3) i32 @_ZNKSt3__115__codecvt_utf16IwLb0EE6do_outER11__mbstate_tPKwS5_RS5_PcS7_RS7_(ptr noundef nonnull readonly align 8 captures(none) dereferenceable(36) %0, ptr nonnull readnone align 4 captures(none) %1, ptr noundef %2, ptr noundef readnone captures(address) %3, ptr noundef nonnull writeonly align 8 captures(none) dereferenceable(8) %4, ptr noundef %5, ptr noundef %6, ptr noundef nonnull writeonly align 8 captures(none) dereferenceable(8) %7) unnamed_addr #24 align 2 {
  %9 = getelementptr inbounds nuw i8, ptr %0, i64 24
  %10 = load i64, ptr %9, align 8, !tbaa !445
  %11 = getelementptr inbounds nuw i8, ptr %0, i64 32
  %12 = load i32, ptr %11, align 8, !tbaa !447
  %13 = and i32 %12, 2
  %.not.i = icmp eq i32 %13, 0
  br i1 %.not.i, label %22, label %14

14:                                               ; preds = %8
  %15 = ptrtoint ptr %6 to i64
  %16 = ptrtoint ptr %5 to i64
  %17 = sub i64 %15, %16
  %18 = icmp slt i64 %17, 2
  br i1 %18, label %_ZNSt3__1L15ucs4_to_utf16beEPKjS1_RS1_PhS3_RS3_mNS_12codecvt_modeE.exit, label %19

19:                                               ; preds = %14
  %20 = getelementptr inbounds nuw i8, ptr %5, i64 1
  store i8 -2, ptr %5, align 1, !tbaa !4
  %21 = getelementptr inbounds nuw i8, ptr %5, i64 2
  store i8 -1, ptr %20, align 1, !tbaa !4
  br label %22

22:                                               ; preds = %19, %8
  %.0 = phi ptr [ %5, %8 ], [ %21, %19 ]
  %23 = icmp ult ptr %2, %3
  br i1 %23, label %.lr.ph.i, label %_ZNSt3__1L15ucs4_to_utf16beEPKjS1_RS1_PhS3_RS3_mNS_12codecvt_modeE.exit

.lr.ph.i:                                         ; preds = %22
  %24 = ptrtoint ptr %6 to i64
  br label %25

25:                                               ; preds = %60, %.lr.ph.i
  %.024 = phi ptr [ %2, %.lr.ph.i ], [ %63, %60 ]
  %.1 = phi ptr [ %.0, %.lr.ph.i ], [ %62, %60 ]
  %26 = load i32, ptr %.024, align 4, !tbaa !27
  %27 = and i32 %26, -2048
  %28 = icmp eq i32 %27, 55296
  %29 = zext i32 %26 to i64
  %30 = icmp ult i64 %10, %29
  %or.cond.i = or i1 %28, %30
  br i1 %or.cond.i, label %_ZNSt3__1L15ucs4_to_utf16beEPKjS1_RS1_PhS3_RS3_mNS_12codecvt_modeE.exit, label %31

31:                                               ; preds = %25
  %32 = icmp ult i32 %26, 65536
  %33 = ptrtoint ptr %.1 to i64
  %34 = sub i64 %24, %33
  br i1 %32, label %35, label %41

35:                                               ; preds = %31
  %36 = icmp slt i64 %34, 2
  br i1 %36, label %_ZNSt3__1L15ucs4_to_utf16beEPKjS1_RS1_PhS3_RS3_mNS_12codecvt_modeE.exit, label %37

37:                                               ; preds = %35
  %38 = lshr i32 %26, 8
  %39 = trunc nuw i32 %38 to i8
  %40 = getelementptr inbounds nuw i8, ptr %.1, i64 1
  store i8 %39, ptr %.1, align 1, !tbaa !4
  br label %60

41:                                               ; preds = %31
  %42 = icmp slt i64 %34, 4
  br i1 %42, label %_ZNSt3__1L15ucs4_to_utf16beEPKjS1_RS1_PhS3_RS3_mNS_12codecvt_modeE.exit, label %43

43:                                               ; preds = %41
  %44 = lshr i32 %26, 10
  %45 = and i32 %44, 1984
  %46 = add nuw nsw i32 %45, 16320
  %47 = and i32 %44, 63
  %48 = or disjoint i32 %46, %47
  %49 = lshr i32 %46, 8
  %50 = trunc nuw nsw i32 %49 to i8
  %51 = or i8 %50, -40
  %52 = getelementptr inbounds nuw i8, ptr %.1, i64 1
  store i8 %51, ptr %.1, align 1, !tbaa !4
  %53 = trunc i32 %48 to i8
  %54 = getelementptr inbounds nuw i8, ptr %.1, i64 2
  store i8 %53, ptr %52, align 1, !tbaa !4
  %55 = lshr i32 %26, 8
  %56 = trunc i32 %55 to i8
  %57 = and i8 %56, 3
  %58 = or disjoint i8 %57, -36
  %59 = getelementptr inbounds nuw i8, ptr %.1, i64 3
  store i8 %58, ptr %54, align 1, !tbaa !4
  br label %60

60:                                               ; preds = %43, %37
  %.2 = phi ptr [ %40, %37 ], [ %59, %43 ]
  %61 = trunc i32 %26 to i8
  %62 = getelementptr inbounds nuw i8, ptr %.2, i64 1
  store i8 %61, ptr %.2, align 1, !tbaa !4
  %63 = getelementptr inbounds nuw i8, ptr %.024, i64 4
  %64 = icmp ult ptr %63, %3
  br i1 %64, label %25, label %_ZNSt3__1L15ucs4_to_utf16beEPKjS1_RS1_PhS3_RS3_mNS_12codecvt_modeE.exit, !llvm.loop !448

_ZNSt3__1L15ucs4_to_utf16beEPKjS1_RS1_PhS3_RS3_mNS_12codecvt_modeE.exit: ; preds = %25, %35, %41, %60, %14, %22
  %.125 = phi ptr [ %2, %22 ], [ %2, %14 ], [ %.024, %41 ], [ %63, %60 ], [ %.024, %35 ], [ %.024, %25 ]
  %.3 = phi ptr [ %.0, %22 ], [ %5, %14 ], [ %.1, %41 ], [ %62, %60 ], [ %.1, %35 ], [ %.1, %25 ]
  %.0.i = phi i32 [ 0, %22 ], [ 1, %14 ], [ 1, %41 ], [ 0, %60 ], [ 1, %35 ], [ 2, %25 ]
  %65 = ptrtoint ptr %.125 to i64
  %66 = ptrtoint ptr %2 to i64
  %67 = sub i64 %65, %66
  %68 = getelementptr inbounds i8, ptr %2, i64 %67
  store ptr %68, ptr %4, align 8, !tbaa !128
  %69 = ptrtoint ptr %.3 to i64
  %70 = ptrtoint ptr %5 to i64
  %71 = sub i64 %69, %70
  %72 = getelementptr inbounds i8, ptr %5, i64 %71
  store ptr %72, ptr %7, align 8, !tbaa !72
  ret i32 %.0.i
}